; Function Attrs: nofree nounwind uwtable
define range(i64 0, 4294967296) i64 @zfp_encode_block_strided_float_1(ptr noundef readonly captures(none) %0, ptr noundef readonly captures(none) %1, i64 noundef %2) local_unnamed_addr #0 {
  %4 = alloca [4 x float], align 256
  call void @llvm.lifetime.start.p0(i64 16, ptr nonnull %4) #11
  br label %5

5:                                                ; preds = %5, %3
  %.09.i = phi i32 [ 0, %3 ], [ %8, %5 ]
  %.058.i = phi ptr [ %4, %3 ], [ %7, %5 ]
  %.067.i = phi ptr [ %1, %3 ], [ %9, %5 ]
  %6 = load float, ptr %.067.i, align 4, !tbaa !12
  %7 = getelementptr inbounds nuw i8, ptr %.058.i, i64 4
  store float %6, ptr %.058.i, align 4, !tbaa !12
  %8 = add nuw nsw i32 %.09.i, 1
  %9 = getelementptr inbounds float, ptr %.067.i, i64 %2
  %exitcond.not.i = icmp eq i32 %8, 4
  br i1 %exitcond.not.i, label %gather_float_1.exit, label %5

gather_float_1.exit:                              ; preds = %5
  %10 = call i64 @zfp_encode_block_float_1(ptr noundef %0, ptr noundef nonnull %4)
  call void @llvm.lifetime.end.p0(i64 16, ptr nonnull %4) #11
  ret i64 %10
}